target datalayout = "e-m:e-p270:32:32-p271:32:32-p272:64:64-i64:64-i128:128-f80:128-n8:16:32:64-S128"
target triple = "x86_64-pc-linux-gnu"

%"class.Imath_3_2::Vec3" = type { double, double, double }

; Function Attrs: inlinehint mustprogress nounwind uwtable
define linkonce_odr hidden void @_ZN9Imath_3_24Vec3IdEC2Eddd(ptr noundef nonnull align 8 dereferenceable(24) %0, double noundef %1, double noundef %2, double noundef %3) unnamed_addr #7 comdat align 2 {
  %5 = alloca ptr, align 8
  %6 = alloca double, align 8
  %7 = alloca double, align 8
  %8 = alloca double, align 8
  store ptr %0, ptr %5, align 8, !tbaa !3
  store double %1, ptr %6, align 8, !tbaa !11
  store double %2, ptr %7, align 8, !tbaa !11
  store double %3, ptr %8, align 8, !tbaa !11
  %9 = load ptr, ptr %5, align 8
  %10 = getelementptr inbounds nuw %"class.Imath_3_2::Vec3", ptr %9, i32 0, i32 0
  %11 = load double, ptr %6, align 8, !tbaa !11
  store double %11, ptr %10, align 8, !tbaa !8
  %12 = getelementptr inbounds nuw %"class.Imath_3_2::Vec3", ptr %9, i32 0, i32 1
  %13 = load double, ptr %7, align 8, !tbaa !11
  store double %13, ptr %12, align 8, !tbaa !12
  %14 = getelementptr inbounds nuw %"class.Imath_3_2::Vec3", ptr %9, i32 0, i32 2
  %15 = load double, ptr %8, align 8, !tbaa !11
  store double %15, ptr %14, align 8, !tbaa !13
  ret void
}

; Function Attrs: mustprogress nounwind uwtable
define void @_ZN9Imath_3_29hsv2rgb_dERKNS_4Vec3IdEE(ptr dead_on_unwind noalias writable sret(%"class.Imath_3_2::Vec3") align 8 %0, ptr noundef nonnull align 8 dereferenceable(24) %1) #4 {
  %3 = alloca ptr, align 8
  %4 = alloca ptr, align 8
  %5 = alloca double, align 8
  %6 = alloca double, align 8
  %7 = alloca double, align 8
  %8 = alloca double, align 8
  %9 = alloca double, align 8
  %10 = alloca double, align 8
  %11 = alloca i32, align 4
  %12 = alloca double, align 8
  %13 = alloca double, align 8
  %14 = alloca double, align 8
  %15 = alloca double, align 8
  store ptr %0, ptr %3, align 8
  store ptr %1, ptr %4, align 8, !tbaa !3
  call void @llvm.lifetime.start.p0(i64 8, ptr %5) #3
  %16 = load ptr, ptr %4, align 8, !tbaa !3
  %17 = getelementptr inbounds nuw %"class.Imath_3_2::Vec3", ptr %16, i32 0, i32 0
  %18 = load double, ptr %17, align 8, !tbaa !8
  store double %18, ptr %5, align 8, !tbaa !11
  call void @llvm.lifetime.start.p0(i64 8, ptr %6) #3
  %19 = load ptr, ptr %4, align 8, !tbaa !3
  %20 = getelementptr inbounds nuw %"class.Imath_3_2::Vec3", ptr %19, i32 0, i32 1
  %21 = load double, ptr %20, align 8, !tbaa !12
  store double %21, ptr %6, align 8, !tbaa !11
  call void @llvm.lifetime.start.p0(i64 8, ptr %7) #3
  %22 = load ptr, ptr %4, align 8, !tbaa !3
  %23 = getelementptr inbounds nuw %"class.Imath_3_2::Vec3", ptr %22, i32 0, i32 2
  %24 = load double, ptr %23, align 8, !tbaa !13
  store double %24, ptr %7, align 8, !tbaa !11
  call void @llvm.lifetime.start.p0(i64 8, ptr %8) #3
  store double 0.000000e+00, ptr %8, align 8, !tbaa !11
  call void @llvm.lifetime.start.p0(i64 8, ptr %9) #3
  store double 0.000000e+00, ptr %9, align 8, !tbaa !11
  call void @llvm.lifetime.start.p0(i64 8, ptr %10) #3
  store double 0.000000e+00, ptr %10, align 8, !tbaa !11
  %25 = load double, ptr %5, align 8, !tbaa !11
  %26 = fcmp oeq double %25, 1.000000e+00
  br i1 %26, label %27, label %28

27:                                               ; preds = %2
  store double 0.000000e+00, ptr %5, align 8, !tbaa !11
  br label %31

28:                                               ; preds = %2
  %29 = load double, ptr %5, align 8, !tbaa !11
  %30 = fmul double %29, 6.000000e+00
  store double %30, ptr %5, align 8, !tbaa !11
  br label %31

31:                                               ; preds = %28, %27
  call void @llvm.lifetime.start.p0(i64 4, ptr %11) #3
  %32 = load double, ptr %5, align 8, !tbaa !11
  %33 = call double @llvm.floor.f64(double %32)
  %34 = fptosi double %33 to i32
  store i32 %34, ptr %11, align 4, !tbaa !14
  call void @llvm.lifetime.start.p0(i64 8, ptr %12) #3
  %35 = load double, ptr %5, align 8, !tbaa !11
  %36 = load i32, ptr %11, align 4, !tbaa !14
  %37 = sitofp i32 %36 to double
  %38 = fsub double %35, %37
  store double %38, ptr %12, align 8, !tbaa !11
  call void @llvm.lifetime.start.p0(i64 8, ptr %13) #3
  %39 = load double, ptr %7, align 8, !tbaa !11
  %40 = load double, ptr %6, align 8, !tbaa !11
  %41 = fsub double 1.000000e+00, %40
  %42 = fmul double %39, %41
  store double %42, ptr %13, align 8, !tbaa !11
  call void @llvm.lifetime.start.p0(i64 8, ptr %14) #3
  %43 = load double, ptr %7, align 8, !tbaa !11
  %44 = load double, ptr %6, align 8, !tbaa !11
  %45 = load double, ptr %12, align 8, !tbaa !11
  %46 = fneg double %44
  %47 = call double @llvm.fmuladd.f64(double %46, double %45, double 1.000000e+00)
  %48 = fmul double %43, %47
  store double %48, ptr %14, align 8, !tbaa !11
  call void @llvm.lifetime.start.p0(i64 8, ptr %15) #3
  %49 = load double, ptr %7, align 8, !tbaa !11
  %50 = load double, ptr %6, align 8, !tbaa !11
  %51 = load double, ptr %12, align 8, !tbaa !11
  %52 = fsub double 1.000000e+00, %51
  %53 = fneg double %50
  %54 = call double @llvm.fmuladd.f64(double %53, double %52, double 1.000000e+00)
  %55 = fmul double %49, %54
  store double %55, ptr %15, align 8, !tbaa !11
  %56 = load i32, ptr %11, align 4, !tbaa !14
  switch i32 %56, label %81 [
    i32 0, label %57
    i32 1, label %61
    i32 2, label %65
    i32 3, label %69
    i32 4, label %73
    i32 5, label %77
  ]

57:                                               ; preds = %31
  %58 = load double, ptr %7, align 8, !tbaa !11
  store double %58, ptr %8, align 8, !tbaa !11
  %59 = load double, ptr %15, align 8, !tbaa !11
  store double %59, ptr %9, align 8, !tbaa !11
  %60 = load double, ptr %13, align 8, !tbaa !11
  store double %60, ptr %10, align 8, !tbaa !11
  br label %81

61:                                               ; preds = %31
  %62 = load double, ptr %14, align 8, !tbaa !11
  store double %62, ptr %8, align 8, !tbaa !11
  %63 = load double, ptr %7, align 8, !tbaa !11
  store double %63, ptr %9, align 8, !tbaa !11
  %64 = load double, ptr %13, align 8, !tbaa !11
  store double %64, ptr %10, align 8, !tbaa !11
  br label %81

65:                                               ; preds = %31
  %66 = load double, ptr %13, align 8, !tbaa !11
  store double %66, ptr %8, align 8, !tbaa !11
  %67 = load double, ptr %7, align 8, !tbaa !11
  store double %67, ptr %9, align 8, !tbaa !11
  %68 = load double, ptr %15, align 8, !tbaa !11
  store double %68, ptr %10, align 8, !tbaa !11
  br label %81

69:                                               ; preds = %31
  %70 = load double, ptr %13, align 8, !tbaa !11
  store double %70, ptr %8, align 8, !tbaa !11
  %71 = load double, ptr %14, align 8, !tbaa !11
  store double %71, ptr %9, align 8, !tbaa !11
  %72 = load double, ptr %7, align 8, !tbaa !11
  store double %72, ptr %10, align 8, !tbaa !11
  br label %81

73:                                               ; preds = %31
  %74 = load double, ptr %15, align 8, !tbaa !11
  store double %74, ptr %8, align 8, !tbaa !11
  %75 = load double, ptr %13, align 8, !tbaa !11
  store double %75, ptr %9, align 8, !tbaa !11
  %76 = load double, ptr %7, align 8, !tbaa !11
  store double %76, ptr %10, align 8, !tbaa !11
  br label %81

77:                                               ; preds = %31
  %78 = load double, ptr %7, align 8, !tbaa !11
  store double %78, ptr %8, align 8, !tbaa !11
  %79 = load double, ptr %13, align 8, !tbaa !11
  store double %79, ptr %9, align 8, !tbaa !11
  %80 = load double, ptr %14, align 8, !tbaa !11
  store double %80, ptr %10, align 8, !tbaa !11
  br label %81

81:                                               ; preds = %31, %77, %73, %69, %65, %61, %57
  %82 = load double, ptr %8, align 8, !tbaa !11
  %83 = load double, ptr %9, align 8, !tbaa !11
  %84 = load double, ptr %10, align 8, !tbaa !11
  call void @_ZN9Imath_3_24Vec3IdEC2Eddd(ptr noundef nonnull align 8 dereferenceable(24) %0, double noundef %82, double noundef %83, double noundef %84) #3
  call void @llvm.lifetime.end.p0(i64 8, ptr %15) #3
  call void @llvm.lifetime.end.p0(i64 8, ptr %14) #3
  call void @llvm.lifetime.end.p0(i64 8, ptr %13) #3
  call void @llvm.lifetime.end.p0(i64 8, ptr %12) #3
  call void @llvm.lifetime.end.p0(i64 4, ptr %11) #3
  call void @llvm.lifetime.end.p0(i64 8, ptr %10) #3
  call void @llvm.lifetime.end.p0(i64 8, ptr %9) #3
  call void @llvm.lifetime.end.p0(i64 8, ptr %8) #3
  call void @llvm.lifetime.end.p0(i64 8, ptr %7) #3
  call void @llvm.lifetime.end.p0(i64 8, ptr %6) #3
  call void @llvm.lifetime.end.p0(i64 8, ptr %5) #3
  ret void
}