; Function Attrs: mustprogress nofree norecurse nosync nounwind willreturn memory(argmem: readwrite) uwtable
define void @_ZN9Imath_3_29hsv2rgb_dERKNS_4Vec3IdEE(ptr dead_on_unwind noalias writable writeonly sret(%"class.Imath_3_2::Vec3") align 8 captures(none) initializes((0, 24)) %0, ptr noundef nonnull readonly align 8 captures(none) dereferenceable(24) %1) local_unnamed_addr #3 {
  %3 = load double, ptr %1, align 8, !tbaa !3
  %4 = getelementptr inbounds nuw i8, ptr %1, i64 8
  %5 = load double, ptr %4, align 8, !tbaa !8
  %6 = getelementptr inbounds nuw i8, ptr %1, i64 16
  %7 = load double, ptr %6, align 8, !tbaa !9
  %8 = fcmp oeq double %3, 1.000000e+00
  %9 = fmul double %3, 6.000000e+00
  %.0 = select i1 %8, double 0.000000e+00, double %9
  %10 = tail call double @llvm.floor.f64(double %.0)
  %11 = fptosi double %10 to i32
  %12 = sitofp i32 %11 to double
  %13 = fsub double %.0, %12
  %14 = fsub double 1.000000e+00, %5
  %15 = fmul double %7, %14
  %16 = fneg double %5
  %17 = tail call double @llvm.fmuladd.f64(double %16, double %13, double 1.000000e+00)
  %18 = fmul double %7, %17
  %19 = fsub double 1.000000e+00, %13
  %20 = tail call double @llvm.fmuladd.f64(double %16, double %19, double 1.000000e+00)
  %21 = fmul double %7, %20
  switch i32 %11, label %28 [
    i32 0, label %22
    i32 1, label %23
    i32 2, label %24
    i32 3, label %25
    i32 4, label %26
    i32 5, label %27
  ]

22:                                               ; preds = %2
  br label %28

23:                                               ; preds = %2
  br label %28

24:                                               ; preds = %2
  br label %28

25:                                               ; preds = %2
  br label %28

26:                                               ; preds = %2
  br label %28

27:                                               ; preds = %2
  br label %28

28:                                               ; preds = %27, %26, %25, %24, %23, %22, %2
  %.039 = phi double [ 0.000000e+00, %2 ], [ %18, %27 ], [ %7, %26 ], [ %7, %25 ], [ %21, %24 ], [ %15, %23 ], [ %15, %22 ]
  %.038 = phi double [ 0.000000e+00, %2 ], [ %15, %27 ], [ %15, %26 ], [ %18, %25 ], [ %7, %24 ], [ %7, %23 ], [ %21, %22 ]
  %.037 = phi double [ 0.000000e+00, %2 ], [ %7, %27 ], [ %21, %26 ], [ %15, %25 ], [ %15, %24 ], [ %18, %23 ], [ %7, %22 ]
  store double %.037, ptr %0, align 8, !tbaa !3
  %29 = getelementptr inbounds nuw i8, ptr %0, i64 8
  store double %.038, ptr %29, align 8, !tbaa !8
  %30 = getelementptr inbounds nuw i8, ptr %0, i64 16
  store double %.039, ptr %30, align 8, !tbaa !9
  ret void
}